; ModuleID = '46/377.c'
source_filename = "46/377.c"
target datalayout = "e-m:e-p270:32:32-p271:32:32-p272:64:64-i64:64-f80:128-n8:16:32:64-S128"
target triple = "x86_64-pc-linux-gnu"

@.str = private unnamed_addr constant [5 x i8] c"%d%d\00", align 1
@.str.1 = private unnamed_addr constant [3 x i8] c"%d\00", align 1
@.str.2 = private unnamed_addr constant [4 x i8] c"%d\0A\00", align 1

; Function Attrs: noinline nounwind uwtable
define dso_local i32 @main() #0 {
  %1 = alloca i32, align 4
  %2 = alloca i32, align 4
  %3 = alloca i32, align 4
  %4 = alloca i32, align 4
  %5 = alloca i32, align 4
  %6 = alloca i32, align 4
  %7 = alloca i32, align 4
  %8 = alloca [100 x [100 x i32]], align 16
  store i32 0, i32* %1, align 4
  store i32 1, i32* %4, align 4
  store i32 0, i32* %5, align 4
  %9 = bitcast [100 x [100 x i32]]* %8 to i8*
  call void @llvm.memset.p0i8.i64(i8* align 16 %9, i8 0, i64 40000, i1 false)
  %10 = call i32 (i8*, ...) @__isoc99_scanf(i8* getelementptr inbounds ([5 x i8], [5 x i8]* @.str, i64 0, i64 0), i32* %6, i32* %7)
  store i32 0, i32* %2, align 4
  br label %11

11:                                               ; preds = %32, %0
  %12 = load i32, i32* %2, align 4
  %13 = load i32, i32* %6, align 4
  %14 = icmp slt i32 %12, %13
  br i1 %14, label %15, label %35

15:                                               ; preds = %11
  store i32 0, i32* %3, align 4
  br label %16

16:                                               ; preds = %28, %15
  %17 = load i32, i32* %3, align 4
  %18 = load i32, i32* %7, align 4
  %19 = icmp slt i32 %17, %18
  br i1 %19, label %20, label %31

20:                                               ; preds = %16
  %21 = load i32, i32* %2, align 4
  %22 = sext i32 %21 to i64
  %23 = getelementptr inbounds [100 x [100 x i32]], [100 x [100 x i32]]* %8, i64 0, i64 %22
  %24 = load i32, i32* %3, align 4
  %25 = sext i32 %24 to i64
  %26 = getelementptr inbounds [100 x i32], [100 x i32]* %23, i64 0, i64 %25
  %27 = call i32 (i8*, ...) @__isoc99_scanf(i8* getelementptr inbounds ([3 x i8], [3 x i8]* @.str.1, i64 0, i64 0), i32* %26)
  br label %28

28:                                               ; preds = %20
  %29 = load i32, i32* %3, align 4
  %30 = add nsw i32 %29, 1
  store i32 %30, i32* %3, align 4
  br label %16

31:                                               ; preds = %16
  br label %32

32:                                               ; preds = %31
  %33 = load i32, i32* %2, align 4
  %34 = add nsw i32 %33, 1
  store i32 %34, i32* %2, align 4
  br label %11

35:                                               ; preds = %11
  store i32 -1, i32* %2, align 4
  store i32 0, i32* %5, align 4
  br label %36

36:                                               ; preds = %171, %35
  %37 = load i32, i32* %5, align 4
  %38 = load i32, i32* %6, align 4
  %39 = load i32, i32* %7, align 4
  %40 = mul nsw i32 %38, %39
  %41 = icmp slt i32 %37, %40
  br i1 %41, label %42, label %172

42:                                               ; preds = %36
  %43 = load i32, i32* %2, align 4
  %44 = add nsw i32 %43, 1
  store i32 %44, i32* %2, align 4
  %45 = load i32, i32* %4, align 4
  %46 = sub nsw i32 %45, 1
  store i32 %46, i32* %3, align 4
  br label %47

47:                                               ; preds = %64, %42
  %48 = load i32, i32* %3, align 4
  %49 = load i32, i32* %7, align 4
  %50 = load i32, i32* %4, align 4
  %51 = sub nsw i32 %49, %50
  %52 = icmp sle i32 %48, %51
  br i1 %52, label %53, label %67

53:                                               ; preds = %47
  %54 = load i32, i32* %2, align 4
  %55 = sext i32 %54 to i64
  %56 = getelementptr inbounds [100 x [100 x i32]], [100 x [100 x i32]]* %8, i64 0, i64 %55
  %57 = load i32, i32* %3, align 4
  %58 = sext i32 %57 to i64
  %59 = getelementptr inbounds [100 x i32], [100 x i32]* %56, i64 0, i64 %58
  %60 = load i32, i32* %59, align 4
  %61 = call i32 (i8*, ...) @printf(i8* getelementptr inbounds ([4 x i8], [4 x i8]* @.str.2, i64 0, i64 0), i32 %60)
  %62 = load i32, i32* %5, align 4
  %63 = add nsw i32 %62, 1
  store i32 %63, i32* %5, align 4
  br label %64

64:                                               ; preds = %53
  %65 = load i32, i32* %3, align 4
  %66 = add nsw i32 %65, 1
  store i32 %66, i32* %3, align 4
  br label %47

67:                                               ; preds = %47
  %68 = load i32, i32* %3, align 4
  %69 = sub nsw i32 %68, 1
  store i32 %69, i32* %3, align 4
  %70 = load i32, i32* %5, align 4
  %71 = load i32, i32* %6, align 4
  %72 = load i32, i32* %7, align 4
  %73 = mul nsw i32 %71, %72
  %74 = icmp sge i32 %70, %73
  br i1 %74, label %75, label %76

75:                                               ; preds = %67
  br label %172

76:                                               ; preds = %67
  %77 = load i32, i32* %4, align 4
  store i32 %77, i32* %2, align 4
  br label %78

78:                                               ; preds = %95, %76
  %79 = load i32, i32* %2, align 4
  %80 = load i32, i32* %6, align 4
  %81 = load i32, i32* %4, align 4
  %82 = sub nsw i32 %80, %81
  %83 = icmp sle i32 %79, %82
  br i1 %83, label %84, label %98

84:                                               ; preds = %78
  %85 = load i32, i32* %2, align 4
  %86 = sext i32 %85 to i64
  %87 = getelementptr inbounds [100 x [100 x i32]], [100 x [100 x i32]]* %8, i64 0, i64 %86
  %88 = load i32, i32* %3, align 4
  %89 = sext i32 %88 to i64
  %90 = getelementptr inbounds [100 x i32], [100 x i32]* %87, i64 0, i64 %89
  %91 = load i32, i32* %90, align 4
  %92 = call i32 (i8*, ...) @printf(i8* getelementptr inbounds ([4 x i8], [4 x i8]* @.str.2, i64 0, i64 0), i32 %91)
  %93 = load i32, i32* %5, align 4
  %94 = add nsw i32 %93, 1
  store i32 %94, i32* %5, align 4
  br label %95

95:                                               ; preds = %84
  %96 = load i32, i32* %2, align 4
  %97 = add nsw i32 %96, 1
  store i32 %97, i32* %2, align 4
  br label %78

98:                                               ; preds = %78
  %99 = load i32, i32* %2, align 4
  %100 = sub nsw i32 %99, 1
  store i32 %100, i32* %2, align 4
  %101 = load i32, i32* %5, align 4
  %102 = load i32, i32* %6, align 4
  %103 = load i32, i32* %7, align 4
  %104 = mul nsw i32 %102, %103
  %105 = icmp sge i32 %101, %104
  br i1 %105, label %106, label %107

106:                                              ; preds = %98
  br label %172

107:                                              ; preds = %98
  %108 = load i32, i32* %4, align 4
  %109 = add nsw i32 %108, 1
  store i32 %109, i32* %4, align 4
  %110 = load i32, i32* %7, align 4
  %111 = load i32, i32* %4, align 4
  %112 = sub nsw i32 %110, %111
  store i32 %112, i32* %3, align 4
  br label %113

113:                                              ; preds = %129, %107
  %114 = load i32, i32* %3, align 4
  %115 = load i32, i32* %4, align 4
  %116 = sub nsw i32 %115, 2
  %117 = icmp sge i32 %114, %116
  br i1 %117, label %118, label %132

118:                                              ; preds = %113
  %119 = load i32, i32* %2, align 4
  %120 = sext i32 %119 to i64
  %121 = getelementptr inbounds [100 x [100 x i32]], [100 x [100 x i32]]* %8, i64 0, i64 %120
  %122 = load i32, i32* %3, align 4
  %123 = sext i32 %122 to i64
  %124 = getelementptr inbounds [100 x i32], [100 x i32]* %121, i64 0, i64 %123
  %125 = load i32, i32* %124, align 4
  %126 = call i32 (i8*, ...) @printf(i8* getelementptr inbounds ([4 x i8], [4 x i8]* @.str.2, i64 0, i64 0), i32 %125)
  %127 = load i32, i32* %5, align 4
  %128 = add nsw i32 %127, 1
  store i32 %128, i32* %5, align 4
  br label %129

129:                                              ; preds = %118
  %130 = load i32, i32* %3, align 4
  %131 = add nsw i32 %130, -1
  store i32 %131, i32* %3, align 4
  br label %113

132:                                              ; preds = %113
  %133 = load i32, i32* %3, align 4
  %134 = add nsw i32 %133, 1
  store i32 %134, i32* %3, align 4
  %135 = load i32, i32* %5, align 4
  %136 = load i32, i32* %6, align 4
  %137 = load i32, i32* %7, align 4
  %138 = mul nsw i32 %136, %137
  %139 = icmp sge i32 %135, %138
  br i1 %139, label %140, label %141

140:                                              ; preds = %132
  br label %172

141:                                              ; preds = %132
  %142 = load i32, i32* %6, align 4
  %143 = load i32, i32* %4, align 4
  %144 = sub nsw i32 %142, %143
  store i32 %144, i32* %2, align 4
  br label %145

145:                                              ; preds = %161, %141
  %146 = load i32, i32* %2, align 4
  %147 = load i32, i32* %4, align 4
  %148 = sub nsw i32 %147, 1
  %149 = icmp sge i32 %146, %148
  br i1 %149, label %150, label %164

150:                                              ; preds = %145
  %151 = load i32, i32* %2, align 4
  %152 = sext i32 %151 to i64
  %153 = getelementptr inbounds [100 x [100 x i32]], [100 x [100 x i32]]* %8, i64 0, i64 %152
  %154 = load i32, i32* %3, align 4
  %155 = sext i32 %154 to i64
  %156 = getelementptr inbounds [100 x i32], [100 x i32]* %153, i64 0, i64 %155
  %157 = load i32, i32* %156, align 4
  %158 = call i32 (i8*, ...) @printf(i8* getelementptr inbounds ([4 x i8], [4 x i8]* @.str.2, i64 0, i64 0), i32 %157)
  %159 = load i32, i32* %5, align 4
  %160 = add nsw i32 %159, 1
  store i32 %160, i32* %5, align 4
  br label %161

161:                                              ; preds = %150
  %162 = load i32, i32* %2, align 4
  %163 = add nsw i32 %162, -1
  store i32 %163, i32* %2, align 4
  br label %145

164:                                              ; preds = %145
  %165 = load i32, i32* %5, align 4
  %166 = load i32, i32* %6, align 4
  %167 = load i32, i32* %7, align 4
  %168 = mul nsw i32 %166, %167
  %169 = icmp sge i32 %165, %168
  br i1 %169, label %170, label %171

170:                                              ; preds = %164
  br label %172

171:                                              ; preds = %164
  br label %36

172:                                              ; preds = %170, %140, %106, %75, %36
  ret i32 0
}

; Function Attrs: argmemonly nounwind willreturn
declare void @llvm.memset.p0i8.i64(i8* nocapture writeonly, i8, i64, i1 immarg) #1

declare dso_local i32 @__isoc99_scanf(i8*, ...) #2

declare dso_local i32 @printf(i8*, ...) #2


!llvm.module.flags = !{!0}
!llvm.ident = !{!1}

!0 = !{i32 1, !"wchar_size", i32 4}
!1 = !{!"clang version 10.0.0-4ubuntu1 "}
